(dp0
S'DTLZ7'
p1
(dp2
I8
(dp3
I40
(dp4
Vuntuned
p5
(lp6
F0.12514
aF0.16288
aF0.14098
aF0.16352
aF0.10883
aF0.13416
aF0.13813
aF0.18659
aF0.12895
aF0.14147
aF0.10888
aF0.11503
aF0.1259
aF0.10696
aF0.10204
aF0.11992
aF0.12398
aF0.12642
aF0.11259
aF0.11107
asVtuned
p7
(lp8
F0.30436
aF0.31395
aF0.30435
aF0.31389
aF0.30965
aF0.34658
aF0.33344
aF0.30089
aF0.33228
aF0.3473
aF0.2982
aF0.30642
aF0.29609
aF0.29712
aF0.32713
aF0.3161
aF0.28296
aF0.28611
aF0.33376
aF0.32459
assI10
(dp9
g5
(lp10
F0.17515
aF0.16289
aF0.15834
aF0.19416
aF0.1037
aF0.1858
aF0.20135
aF0.23834
aF0.12316
aF0.1426
aF0.16926
aF0.16079
aF0.19116
aF0.24235
aF0.09584
aF0.11345
aF0.20119
aF0.16538
aF0.15097
aF0.15317
asg7
(lp11
F0.37137
aF0.35567
aF0.41195
aF0.37939
aF0.3941
aF0.36949
aF0.36143
aF0.33409
aF0.38139
aF0.37216
aF0.39195
aF0.43845
aF0.3791
aF0.36647
aF0.39236
aF0.38429
aF0.39723
aF0.36714
aF0.37913
aF0.3369
assI20
(dp12
g5
(lp13
F0.18041
aF0.15686
aF0.12707
aF0.17991
aF0.09241
aF0.15333
aF0.20776
aF0.20154
aF0.12328
aF0.12834
aF0.13229
aF0.12144
aF0.13603
aF0.09263
aF0.10627
aF0.12996
aF0.12818
aF0.13575
aF0.11608
aF0.12028
asg7
(lp14
F0.33672
aF0.30588
aF0.3222
aF0.33225
aF0.29558
aF0.35826
aF0.34779
aF0.28311
aF0.32487
aF0.32532
aF0.32407
aF0.2748
aF0.33789
aF0.32581
aF0.32295
aF0.33072
aF0.33931
aF0.31864
aF0.30479
aF0.32038
asssI2
(dp15
I40
(dp16
g5
(lp17
F0.63687
aF0.6933
aF0.66874
aF0.66696
aF0.64615
aF0.6668
aF0.68322
aF0.72564
aF0.67124
aF0.68558
aF0.66364
aF0.72473
aF0.65562
aF0.65912
aF0.68637
aF0.74884
aF0.72964
aF0.67962
aF0.64971
aF0.68584
asg7
(lp18
F0.79471
aF0.76968
aF0.78121
aF0.77197
aF0.76749
aF0.75225
aF0.80459
aF0.74515
aF0.75981
aF0.80582
aF0.78725
aF0.76748
aF0.74993
aF0.73974
aF0.76662
aF0.7797
aF0.77285
aF0.76847
aF0.80101
aF0.74739
assI10
(dp19
g5
(lp20
F0.91306
aF0.82878
aF0.87665
aF0.8986
aF0.92141
aF0.8938
aF0.87235
aF0.80757
aF0.84704
aF0.88955
aF0.85014
aF0.8088
aF0.92055
aF0.84318
aF0.84524
aF0.9216
aF0.92061
aF0.89586
aF0.87492
aF0.95543
asg7
(lp21
F0.96125
aF0.98267
aF0.93431
aF0.94058
aF0.8686
aF0.88485
aF0.93858
aF0.95524
aF0.87635
aF0.87398
aF0.911
aF0.94186
aF0.8996
aF0.90196
aF0.99535
aF0.96171
aF0.9536
aF0.89271
aF0.94853
aF0.92378
assI20
(dp22
g5
(lp23
F0.70294
aF0.6899
aF0.69949
aF0.72669
aF0.64978
aF0.71184
aF0.71281
aF0.78068
aF0.64047
aF0.72151
aF0.73557
aF0.68615
aF0.68247
aF0.71984
aF0.68667
aF0.70905
aF0.75193
aF0.79447
aF0.64495
aF0.69758
asg7
(lp24
F0.84524
aF0.77214
aF0.81993
aF0.81048
aF0.78771
aF0.9389
aF0.78343
aF0.97811
aF0.7864
aF0.84467
aF0.75504
aF0.95869
aF0.77332
aF0.93491
aF0.87397
aF0.77804
aF0.87065
aF0.85364
aF0.7536
aF0.92497
asssI4
(dp25
I40
(dp26
g5
(lp27
F0.42744
aF0.49698
aF0.46366
aF0.48031
aF0.43209
aF0.4117
aF0.44469
aF0.54276
aF0.46333
aF0.5133
aF0.41224
aF0.46938
aF0.46498
aF0.45439
aF0.43953
aF0.48199
aF0.48195
aF0.43339
aF0.44701
aF0.43234
asg7
(lp28
F0.61305
aF0.62533
aF0.61133
aF0.61952
aF0.62047
aF0.59205
aF0.62191
aF0.61239
aF0.60835
aF0.64669
aF0.61722
aF0.60484
aF0.60814
aF0.59174
aF0.62476
aF0.61258
aF0.60701
aF0.60199
aF0.64506
aF0.60428
assI10
(dp29
g5
(lp30
F0.55402
aF0.54744
aF0.59987
aF0.61483
aF0.49806
aF0.58816
aF0.62478
aF0.64041
aF0.51888
aF0.56109
aF0.55557
aF0.51166
aF0.57664
aF0.61896
aF0.49743
aF0.50919
aF0.60508
aF0.52121
aF0.52649
aF0.57262
asg7
(lp31
F0.68892
aF0.70649
aF0.73043
aF0.70589
aF0.69871
aF0.71656
aF0.68857
aF0.68639
aF0.69998
aF0.69846
aF0.73092
aF0.76056
aF0.71157
aF0.69635
aF0.73149
aF0.71876
aF0.71725
aF0.70759
aF0.7112
aF0.68946
assI20
(dp32
g5
(lp33
F0.54107
aF0.5029
aF0.54192
aF0.59019
aF0.47056
aF0.52091
aF0.58712
aF0.61653
aF0.47885
aF0.56118
aF0.55008
aF0.48194
aF0.57804
aF0.53488
aF0.49854
aF0.52543
aF0.55534
aF0.52397
aF0.48848
aF0.47676
asg7
(lp34
F0.71778
aF0.6811
aF0.66498
aF0.68252
aF0.68449
aF0.68738
aF0.67841
aF0.65597
aF0.66137
aF0.63695
aF0.65494
aF0.66411
aF0.6802
aF0.69878
aF0.66755
aF0.66912
aF0.6889
aF0.65099
aF0.65213
aF0.66852
asssI6
(dp35
I40
(dp36
g5
(lp37
F0.25591
aF0.31943
aF0.26586
aF0.3432
aF0.2621
aF0.24802
aF0.22445
aF0.30568
aF0.26272
aF0.30795
aF0.24129
aF0.23349
aF0.28484
aF0.23415
aF0.22364
aF0.25148
aF0.28965
aF0.25317
aF0.23596
aF0.23622
asg7
(lp38
F0.43603
aF0.4613
aF0.45548
aF0.46942
aF0.44371
aF0.46222
aF0.47735
aF0.46068
aF0.44897
aF0.48734
aF0.46177
aF0.47048
aF0.45563
aF0.45507
aF0.4989
aF0.45256
aF0.44822
aF0.45119
aF0.49893
aF0.45441
assI10
(dp39
g5
(lp40
F0.35125
aF0.33178
aF0.36281
aF0.4418
aF0.30336
aF0.38426
aF0.39869
aF0.45662
aF0.28327
aF0.35161
aF0.34989
aF0.32244
aF0.35464
aF0.40767
aF0.33962
aF0.2545
aF0.39671
aF0.31702
aF0.30247
aF0.34446
asg7
(lp41
F0.52075
aF0.55707
aF0.59312
aF0.55619
aF0.54427
aF0.57633
aF0.53956
aF0.53085
aF0.54039
aF0.54364
aF0.54504
aF0.6159
aF0.57415
aF0.54817
aF0.57206
aF0.5632
aF0.56502
aF0.54943
aF0.58337
aF0.5211
assI20
(dp42
g5
(lp43
F0.33076
aF0.31232
aF0.32031
aF0.39711
aF0.26394
aF0.32668
aF0.38935
aF0.35155
aF0.26626
aF0.30969
aF0.34102
aF0.25763
aF0.29474
aF0.25358
aF0.32446
aF0.3074
aF0.33505
aF0.29288
aF0.25385
aF0.26317
asg7
(lp44
F0.56855
aF0.51292
aF0.51581
aF0.50962
aF0.50314
aF0.54524
aF0.54036
aF0.49521
aF0.5044
aF0.48727
aF0.50994
aF0.51353
aF0.52987
aF0.53762
aF0.50629
aF0.51023
aF0.53558
aF0.49215
aF0.48276
aF0.51955
assssS'DTLZ5'
p45
(dp46
I8
(dp47
I40
(dp48
g5
(lp49
F0.04604
aF0.07647
aF0.04628
aF0.04348
aF0.04657
aF0.05951
aF0.04759
aF0.03937
aF0.04166
aF0.05111
aF0.04112
aF0.05192
aF0.0399
aF0.04455
aF0.06759
aF0.05259
aF0.04904
aF0.05494
aF0.04369
aF0.04423
asg7
(lp50
F0.08796
aF0.08467
aF0.11475
aF0.08422
aF0.08518
aF0.08602
aF0.11796
aF0.10412
aF0.07679
aF0.08711
aF0.08409
aF0.08744
aF0.09286
aF0.0858
aF0.09111
aF0.07641
aF0.08344
aF0.08133
aF0.09017
aF0.10814
assI10
(dp51
g5
(lp52
F0.0614
aF0.05063
aF0.0387
aF0.04092
aF0.07779
aF0.05063
aF0.05365
aF0.05703
aF0.04803
aF0.07682
aF0.04282
aF0.04865
aF0.05752
aF0.0409
aF0.05565
aF0.06015
aF0.06095
aF0.06529
aF0.04088
aF0.03505
asg7
(lp53
F0.107
aF0.11343
aF0.10466
aF0.08449
aF0.075
aF0.08146
aF0.08547
aF0.09871
aF0.07608
aF0.07386
aF0.10963
aF0.08242
aF0.09617
aF0.08323
aF0.08204
aF0.08493
aF0.07219
aF0.09432
aF0.08118
aF0.09901
assI20
(dp54
g5
(lp55
F0.06254
aF0.10422
aF0.05392
aF0.05226
aF0.06338
aF0.06047
aF0.0663
aF0.05547
aF0.07445
aF0.07094
aF0.05876
aF0.06165
aF0.0872
aF0.05735
aF0.08066
aF0.07531
aF0.06345
aF0.06339
aF0.05492
aF0.05413
asg7
(lp56
F0.10532
aF0.12758
aF0.12299
aF0.11035
aF0.11994
aF0.1065
aF0.11568
aF0.11751
aF0.11063
aF0.09596
aF0.11406
aF0.10616
aF0.11017
aF0.12271
aF0.10382
aF0.11214
aF0.10868
aF0.09392
aF0.10263
aF0.12183
asssI2
(dp57
I40
(dp58
g5
(lp59
F0.72909
aF0.6988
aF0.74394
aF0.7131
aF0.71018
aF0.72918
aF0.68484
aF0.72612
aF0.64339
aF0.66452
aF0.7079
aF0.72025
aF0.73092
aF0.64837
aF0.72435
aF0.67594
aF0.71111
aF0.72805
aF0.69541
aF0.70759
asg7
(lp60
F0.75783
aF0.74438
aF0.72228
aF0.75837
aF0.73099
aF0.73254
aF0.76645
aF0.76921
aF0.72098
aF0.71327
aF0.74859
aF0.74781
aF0.77365
aF0.7289
aF0.75221
aF0.77275
aF0.7519
aF0.73031
aF0.74003
aF0.7578
assI10
(dp61
g5
(lp62
F0.68896
aF0.72523
aF0.72076
aF0.69376
aF0.74272
aF0.69177
aF0.74417
aF0.66431
aF0.69865
aF0.72836
aF0.69677
aF0.69377
aF0.71625
aF0.68114
aF0.73487
aF0.70941
aF0.70856
aF0.70854
aF0.69286
aF0.66998
asg7
(lp63
F0.74117
aF0.75655
aF0.74087
aF0.75648
aF0.75584
aF0.73988
aF0.75755
aF0.74768
aF0.76106
aF0.74841
aF0.76426
aF0.74003
aF0.7551
aF0.72461
aF0.75052
aF0.72844
aF0.75507
aF0.7271
aF0.7437
aF0.72425
assI20
(dp64
g5
(lp65
F0.71629
aF0.73632
aF0.71066
aF0.69552
aF0.75723
aF0.73305
aF0.72912
aF0.70755
aF0.69053
aF0.67297
aF0.72236
aF0.70195
aF0.72324
aF0.69005
aF0.70591
aF0.72261
aF0.68282
aF0.67523
aF0.71032
aF0.6972
asg7
(lp66
F0.75947
aF0.79307
aF0.74881
aF0.74398
aF0.73871
aF0.78149
aF0.75121
aF0.75864
aF0.75615
aF0.75763
aF0.75245
aF0.74612
aF0.75873
aF0.75983
aF0.73527
aF0.74628
aF0.76839
aF0.72624
aF0.73196
aF0.7468
asssI4
(dp67
I40
(dp68
g5
(lp69
F0.49219
aF0.60134
aF0.52244
aF0.54139
aF0.5319
aF0.55887
aF0.54696
aF0.56032
aF0.53646
aF0.53315
aF0.56141
aF0.53819
aF0.52679
aF0.54115
aF0.58557
aF0.54978
aF0.55921
aF0.54715
aF0.54056
aF0.50905
asg7
(lp70
F0.662
aF0.65007
aF0.63758
aF0.64876
aF0.64271
aF0.64513
aF0.65204
aF0.66147
aF0.65404
aF0.65686
aF0.64832
aF0.64711
aF0.67647
aF0.65014
aF0.66111
aF0.64961
aF0.64059
aF0.62621
aF0.62431
aF0.6359
assI10
(dp71
g5
(lp72
F0.52519
aF0.52714
aF0.48806
aF0.4817
aF0.53122
aF0.31002
aF0.51879
aF0.52021
aF0.46647
aF0.51183
aF0.5151
aF0.49853
aF0.52562
aF0.45753
aF0.56249
aF0.51271
aF0.3651
aF0.51077
aF0.46729
aF0.32955
asg7
(lp73
F0.57815
aF0.59335
aF0.57579
aF0.56654
aF0.57418
aF0.57426
aF0.59138
aF0.56661
aF0.56856
aF0.57686
aF0.58167
aF0.57944
aF0.54325
aF0.58981
aF0.58221
aF0.57899
aF0.5554
aF0.57252
aF0.57807
aF0.57357
assI20
(dp74
g5
(lp75
F0.5175
aF0.60109
aF0.52548
aF0.52124
aF0.56127
aF0.52622
aF0.58521
aF0.57198
aF0.56202
aF0.5288
aF0.54569
aF0.54935
aF0.5845
aF0.54182
aF0.56682
aF0.60294
aF0.56631
aF0.5738
aF0.52996
aF0.53096
asg7
(lp76
F0.659
aF0.66254
aF0.63696
aF0.64681
aF0.64041
aF0.64378
aF0.66003
aF0.67332
aF0.67589
aF0.62936
aF0.64761
aF0.64826
aF0.63603
aF0.64242
aF0.6618
aF0.6532
aF0.64024
aF0.63393
aF0.64808
aF0.65272
asssI6
(dp77
I40
(dp78
g5
(lp79
F0.17308
aF0.24827
aF0.15692
aF0.15055
aF0.18865
aF0.19266
aF0.17624
aF0.14705
aF0.15199
aF0.33431
aF0.14828
aF0.18693
aF0.14489
aF0.15445
aF0.22447
aF0.18014
aF0.17509
aF0.19554
aF0.15738
aF0.16203
asg7
(lp80
F0.47707
aF0.48005
aF0.49914
aF0.47228
aF0.45302
aF0.44564
aF0.48956
aF0.47137
aF0.455
aF0.49947
aF0.45988
aF0.49158
aF0.43651
aF0.43812
aF0.45837
aF0.26222
aF0.44677
aF0.46734
aF0.47036
aF0.48031
assI10
(dp81
g5
(lp82
F0.17844
aF0.16105
aF0.15243
aF0.14256
aF0.19119
aF0.15991
aF0.17129
aF0.18562
aF0.15473
aF0.18364
aF0.15186
aF0.1663
aF0.17911
aF0.12978
aF0.23027
aF0.17658
aF0.18662
aF0.19002
aF0.13106
aF0.1196
asg7
(lp83
F0.21764
aF0.24226
aF0.21956
aF0.22654
aF0.24175
aF0.26546
aF0.23062
aF0.20973
aF0.19337
aF0.20477
aF0.27467
aF0.22778
aF0.2246
aF0.22589
aF0.23484
aF0.21913
aF0.20511
aF0.2621
aF0.22357
aF0.23681
assI20
(dp84
g5
(lp85
F0.15911
aF0.22834
aF0.14483
aF0.13363
aF0.18607
aF0.14612
aF0.17955
aF0.14739
aF0.18181
aF0.17011
aF0.15619
aF0.16449
aF0.18961
aF0.14884
aF0.2172
aF0.18992
aF0.16641
aF0.17074
aF0.14396
aF0.13817
asg7
(lp86
F0.38757
aF0.28467
aF0.38833
aF0.25819
aF0.26068
aF0.40701
aF0.39387
aF0.3546
aF0.25531
aF0.24136
aF0.27204
aF0.25617
aF0.2424
aF0.37818
aF0.24445
aF0.41985
aF0.43038
aF0.38032
aF0.37454
aF0.35437
assssS'DTLZ3'
p87
(dp88
I8
(dp89
I40
(dp90
g5
(lp91
F1.0
aF1.0
aF1.0
aF1.0
aF1.0
aF1.0
aF1.0
aF1.0
aF1.0
aF1.0
aF1.0
aF1.0
aF1.0
aF1.0
aF1.0
aF1.0
aF1.0
aF1.0
aF1.0
aF1.0
asg7
(lp92
F1.0
aF1.0
aF1.0
aF1.0
aF1.0
aF1.0
aF1.0
aF1.0
aF1.0
aF1.0
aF1.0
aF1.0
aF1.0
aF1.0
aF1.0
aF1.0
aF1.0
aF1.0
aF1.0
aF1.0
assI10
(dp93
g5
(lp94
F0.99849
aF0.99996
aF0.98296
aF0.9977
aF0.99956
aF0.98414
aF0.9935
aF0.981
aF0.99996
aF0.97732
aF0.99985
aF0.99813
aF0.99972
aF0.97754
aF0.99069
aF0.99985
aF0.99967
aF0.99951
aF0.99954
aF0.99944
asg7
(lp95
F1.0
aF0.99995
aF1.0
aF0.99999
aF0.99995
aF0.99998
aF1.0
aF0.99999
aF0.99997
aF0.99999
aF0.99999
aF0.99862
aF0.99721
aF0.99999
aF0.99991
aF1.0
aF0.99995
aF0.99998
aF0.99997
aF0.99999
assI20
(dp96
g5
(lp97
F1.0
aF1.0
aF1.0
aF1.0
aF1.0
aF1.0
aF1.0
aF1.0
aF1.0
aF1.0
aF1.0
aF1.0
aF1.0
aF1.0
aF0.98767
aF1.0
aF1.0
aF1.0
aF1.0
aF1.0
asg7
(lp98
F1.0
aF1.0
aF1.0
aF1.0
aF0.99958
aF1.0
aF1.0
aF1.0
aF1.0
aF1.0
aF1.0
aF1.0
aF1.0
aF1.0
aF1.0
aF1.0
aF1.0
aF1.0
aF1.0
aF1.0
asssI2
(dp99
I40
(dp100
g5
(lp101
F1.0
aF1.0
aF1.0
aF1.0
aF0.99904
aF0.99942
aF1.0
aF1.0
aF1.0
aF1.0
aF1.0
aF1.0
aF1.0
aF1.0
aF1.0
aF1.0
aF1.0
aF1.0
aF1.0
aF1.0
asg7
(lp102
F1.0
aF1.0
aF1.0
aF1.0
aF1.0
aF1.0
aF1.0
aF1.0
aF1.0
aF1.0
aF1.0
aF0.99992
aF1.0
aF1.0
aF1.0
aF0.99358
aF0.99864
aF1.0
aF1.0
aF1.0
assI10
(dp103
g5
(lp104
F0.99323
aF0.99811
aF0.97867
aF0.99736
aF0.99737
aF0.99587
aF0.99845
aF0.98746
aF0.99874
aF0.98927
aF0.99504
aF0.99712
aF0.99774
aF0.98247
aF0.9989
aF0.99679
aF0.99471
aF0.99395
aF0.99843
aF0.9967
asg7
(lp105
F0.99993
aF0.99945
aF0.99994
aF0.99957
aF0.99964
aF0.99979
aF0.99993
aF0.99974
aF0.99978
aF0.99964
aF0.99982
aF0.99983
aF0.9998
aF0.99995
aF0.99976
aF0.99983
aF0.99976
aF0.99994
aF0.99936
aF0.9999
assI20
(dp106
g5
(lp107
F1.0
aF0.99963
aF1.0
aF1.0
aF1.0
aF1.0
aF1.0
aF1.0
aF0.99669
aF1.0
aF1.0
aF0.99655
aF0.9999
aF1.0
aF0.99965
aF0.99969
aF0.99718
aF0.99984
aF1.0
aF1.0
asg7
(lp108
F0.99939
aF0.99673
aF0.99209
aF1.0
aF1.0
aF1.0
aF1.0
aF1.0
aF0.99635
aF0.99867
aF1.0
aF1.0
aF0.991
aF0.99999
aF0.99874
aF1.0
aF0.99928
aF0.99255
aF1.0
aF1.0
asssI4
(dp109
I40
(dp110
g5
(lp111
F1.0
aF1.0
aF1.0
aF1.0
aF1.0
aF0.99994
aF1.0
aF1.0
aF1.0
aF1.0
aF1.0
aF1.0
aF1.0
aF1.0
aF1.0
aF1.0
aF1.0
aF1.0
aF1.0
aF1.0
asg7
(lp112
F1.0
aF1.0
aF1.0
aF1.0
aF1.0
aF1.0
aF1.0
aF1.0
aF1.0
aF1.0
aF1.0
aF1.0
aF1.0
aF1.0
aF1.0
aF1.0
aF1.0
aF1.0
aF1.0
aF1.0
assI10
(dp113
g5
(lp114
F0.99715
aF0.99908
aF0.99207
aF0.99985
aF0.99798
aF0.99634
aF0.99904
aF0.99785
aF0.99852
aF0.99851
aF0.99866
aF0.99691
aF0.99761
aF0.99449
aF0.99969
aF0.99784
aF0.99903
aF0.99721
aF0.99865
aF0.99843
asg7
(lp115
F0.99987
aF0.99993
aF0.99988
aF0.99996
aF0.99994
aF0.99992
aF0.99986
aF0.99997
aF0.99996
aF0.99994
aF0.99986
aF0.99997
aF0.99983
aF0.99999
aF0.99984
aF0.99987
aF0.99987
aF0.99995
aF0.99994
aF0.99994
assI20
(dp116
g5
(lp117
F1.0
aF1.0
aF1.0
aF1.0
aF1.0
aF1.0
aF1.0
aF1.0
aF0.99803
aF1.0
aF1.0
aF1.0
aF1.0
aF1.0
aF0.9996
aF0.9987
aF1.0
aF1.0
aF1.0
aF1.0
asg7
(lp118
F1.0
aF1.0
aF1.0
aF1.0
aF1.0
aF1.0
aF1.0
aF1.0
aF1.0
aF1.0
aF1.0
aF1.0
aF0.99857
aF1.0
aF1.0
aF1.0
aF1.0
aF0.9989
aF1.0
aF1.0
asssI6
(dp119
I40
(dp120
g5
(lp121
F1.0
aF1.0
aF1.0
aF1.0
aF1.0
aF1.0
aF1.0
aF1.0
aF1.0
aF1.0
aF1.0
aF1.0
aF1.0
aF1.0
aF1.0
aF1.0
aF1.0
aF1.0
aF1.0
aF1.0
asg7
(lp122
F1.0
aF1.0
aF1.0
aF1.0
aF1.0
aF1.0
aF1.0
aF1.0
aF1.0
aF1.0
aF1.0
aF1.0
aF1.0
aF1.0
aF1.0
aF1.0
aF1.0
aF1.0
aF1.0
aF1.0
assI10
(dp123
g5
(lp124
F0.99823
aF0.99968
aF0.96988
aF0.99992
aF0.99947
aF0.99774
aF0.99961
aF0.99849
aF0.99987
aF0.99968
aF0.99872
aF0.9992
aF0.99958
aF0.99799
aF0.99964
aF0.99955
aF0.9994
aF0.9989
aF0.99847
aF0.9988
asg7
(lp125
F0.99998
aF0.99994
aF0.99999
aF0.99998
aF0.99995
aF1.0
aF0.99993
aF0.99998
aF1.0
aF0.99998
aF0.99997
aF0.99998
aF0.99989
aF0.99997
aF0.99997
aF0.99997
aF0.99997
aF0.99999
aF0.99998
aF0.99997
assI20
(dp126
g5
(lp127
F1.0
aF0.99989
aF1.0
aF1.0
aF1.0
aF1.0
aF1.0
aF1.0
aF1.0
aF1.0
aF1.0
aF1.0
aF1.0
aF1.0
aF1.0
aF0.9995
aF1.0
aF1.0
aF1.0
aF1.0
asg7
(lp128
F0.99979
aF1.0
aF1.0
aF1.0
aF1.0
aF1.0
aF1.0
aF1.0
aF1.0
aF1.0
aF1.0
aF1.0
aF1.0
aF1.0
aF1.0
aF0.9996
aF1.0
aF1.0
aF0.99821
aF1.0
assssS'DTLZ1'
p129
(dp130
I8
(dp131
I40
(dp132
g5
(lp133
F1.0
aF1.0
aF1.0
aF1.0
aF1.0
aF1.0
aF1.0
aF1.0
aF1.0
aF1.0
aF1.0
aF1.0
aF1.0
aF1.0
aF1.0
aF1.0
aF1.0
aF1.0
aF1.0
aF1.0
asg7
(lp134
F1.0
aF0.99964
aF1.0
aF1.0
aF1.0
aF1.0
aF1.0
aF1.0
aF1.0
aF1.0
aF1.0
aF1.0
aF0.99983
aF1.0
aF1.0
aF1.0
aF1.0
aF1.0
aF1.0
aF1.0
assI10
(dp135
g5
(lp136
F0.99973
aF0.99151
aF0.99358
aF0.99934
aF0.99405
aF0.98526
aF0.99999
aF0.99905
aF0.99894
aF0.99805
aF0.98843
aF0.99987
aF0.99317
aF0.99483
aF0.98621
aF0.99999
aF0.99997
aF0.99244
aF0.9957
aF0.99977
asg7
(lp137
F0.99859
aF0.99998
aF1.0
aF0.99881
aF0.99959
aF0.99999
aF0.99999
aF0.99999
aF0.99902
aF1.0
aF1.0
aF1.0
aF0.99917
aF1.0
aF0.99849
aF0.99746
aF0.99999
aF1.0
aF0.99847
aF0.99998
assI20
(dp138
g5
(lp139
F1.0
aF1.0
aF1.0
aF0.99995
aF1.0
aF1.0
aF1.0
aF1.0
aF1.0
aF1.0
aF0.99944
aF1.0
aF1.0
aF0.99117
aF0.99967
aF1.0
aF0.98953
aF0.99968
aF1.0
aF1.0
asg7
(lp140
F0.99993
aF1.0
aF1.0
aF1.0
aF0.99979
aF1.0
aF1.0
aF1.0
aF1.0
aF1.0
aF1.0
aF1.0
aF0.99994
aF1.0
aF1.0
aF1.0
aF1.0
aF1.0
aF1.0
aF1.0
asssI2
(dp141
I40
(dp142
g5
(lp143
F1.0
aF1.0
aF1.0
aF0.99844
aF1.0
aF1.0
aF1.0
aF1.0
aF1.0
aF1.0
aF1.0
aF1.0
aF1.0
aF1.0
aF1.0
aF1.0
aF1.0
aF1.0
aF0.99973
aF1.0
asg7
(lp144
F1.0
aF1.0
aF1.0
aF1.0
aF1.0
aF1.0
aF1.0
aF1.0
aF1.0
aF1.0
aF1.0
aF0.99917
aF1.0
aF1.0
aF1.0
aF0.99516
aF1.0
aF0.99985
aF1.0
aF1.0
assI10
(dp145
g5
(lp146
F0.99721
aF0.99253
aF0.99929
aF0.99467
aF0.99149
aF0.9944
aF0.99956
aF0.99544
aF0.99925
aF0.99944
aF0.99298
aF0.99731
aF0.99483
aF0.99607
aF0.99749
aF0.99824
aF0.99991
aF0.99807
aF0.99916
aF0.99802
asg7
(lp147
F0.9999
aF0.99996
aF0.99998
aF0.99984
aF0.99941
aF0.99988
aF0.99989
aF0.99995
aF0.99995
aF0.99991
aF0.9998
aF0.99985
aF0.99989
aF0.9999
aF0.9999
aF0.99979
aF1.0
aF0.99989
aF0.99983
aF0.99926
assI20
(dp148
g5
(lp149
F1.0
aF0.99882
aF0.99994
aF1.0
aF1.0
aF0.99938
aF1.0
aF1.0
aF1.0
aF1.0
aF1.0
aF0.99705
aF1.0
aF0.99523
aF0.99881
aF1.0
aF0.99888
aF0.99732
aF1.0
aF0.99978
asg7
(lp150
F1.0
aF1.0
aF1.0
aF1.0
aF1.0
aF0.99951
aF1.0
aF0.99996
aF1.0
aF1.0
aF1.0
aF1.0
aF1.0
aF1.0
aF1.0
aF1.0
aF1.0
aF1.0
aF1.0
aF1.0
asssI4
(dp151
I40
(dp152
g5
(lp153
F1.0
aF1.0
aF1.0
aF1.0
aF1.0
aF1.0
aF1.0
aF1.0
aF1.0
aF1.0
aF1.0
aF1.0
aF1.0
aF1.0
aF1.0
aF1.0
aF1.0
aF1.0
aF1.0
aF1.0
asg7
(lp154
F1.0
aF1.0
aF1.0
aF1.0
aF1.0
aF1.0
aF1.0
aF1.0
aF1.0
aF1.0
aF1.0
aF1.0
aF1.0
aF1.0
aF1.0
aF1.0
aF1.0
aF1.0
aF1.0
aF1.0
assI10
(dp155
g5
(lp156
F0.99882
aF0.99884
aF0.99925
aF0.9994
aF0.99925
aF0.9978
aF0.99989
aF0.99949
aF0.99637
aF0.99973
aF0.99662
aF0.99981
aF0.99934
aF0.99901
aF0.99794
aF0.9998
aF0.99983
aF0.9996
aF0.99926
aF0.99834
asg7
(lp157
F1.0
aF0.99997
aF0.99996
aF0.99998
aF0.99994
aF0.99998
aF0.99996
aF0.99997
aF0.99996
aF0.99984
aF0.99998
aF1.0
aF0.99997
aF0.99996
aF0.99999
aF0.99996
aF0.99997
aF0.99995
aF0.99997
aF0.9999
assI20
(dp158
g5
(lp159
F1.0
aF1.0
aF1.0
aF1.0
aF1.0
aF1.0
aF1.0
aF1.0
aF1.0
aF0.99996
aF0.99853
aF0.9987
aF1.0
aF0.99058
aF1.0
aF1.0
aF1.0
aF0.99883
aF1.0
aF1.0
asg7
(lp160
F1.0
aF1.0
aF0.99955
aF1.0
aF1.0
aF0.99974
aF1.0
aF1.0
aF1.0
aF1.0
aF1.0
aF0.9997
aF1.0
aF0.99987
aF0.99981
aF1.0
aF1.0
aF1.0
aF0.99988
aF1.0
asssI6
(dp161
I40
(dp162
g5
(lp163
F1.0
aF1.0
aF1.0
aF1.0
aF1.0
aF1.0
aF1.0
aF1.0
aF1.0
aF1.0
aF1.0
aF1.0
aF1.0
aF1.0
aF1.0
aF1.0
aF1.0
aF1.0
aF1.0
aF1.0
asg7
(lp164
F1.0
aF1.0
aF1.0
aF1.0
aF1.0
aF1.0
aF1.0
aF1.0
aF1.0
aF1.0
aF1.0
aF1.0
aF1.0
aF1.0
aF1.0
aF1.0
aF1.0
aF1.0
aF1.0
aF1.0
assI10
(dp165
g5
(lp166
F0.99967
aF0.99976
aF0.99952
aF0.99869
aF0.99953
aF0.99953
aF0.99986
aF0.9996
aF0.99808
aF0.9998
aF0.99937
aF0.9996
aF0.99953
aF0.99977
aF0.99965
aF0.99988
aF0.99995
aF0.99965
aF0.99986
aF0.99952
asg7
(lp167
F0.99999
aF0.99998
aF0.99997
aF0.99997
aF0.99997
aF0.99999
aF0.99999
aF0.99998
aF1.0
aF0.99998
aF1.0
aF0.99994
aF0.99998
aF1.0
aF1.0
aF0.99999
aF0.99998
aF0.99993
aF1.0
aF0.99995
assI20
(dp168
g5
(lp169
F0.99996
aF1.0
aF1.0
aF0.99986
aF1.0
aF1.0
aF1.0
aF1.0
aF1.0
aF1.0
aF1.0
aF0.99951
aF1.0
aF1.0
aF1.0
aF1.0
aF0.99972
aF1.0
aF1.0
aF1.0
asg7
(lp170
F1.0
aF1.0
aF1.0
aF1.0
aF1.0
aF1.0
aF1.0
aF1.0
aF1.0
aF1.0
aF1.0
aF1.0
aF1.0
aF1.0
aF1.0
aF1.0
aF0.99991
aF0.99973
aF1.0
aF1.0
assss.