(dp0
S'DTLZ7'
p1
(dp2
I8
(dp3
I40
(lp4
F0.13171
aF0.17204
aF0.14693
aF0.17263
aF0.11552
aF0.14013
aF0.14523
aF0.19297
aF0.13455
aF0.14835
aF0.11432
aF0.12146
aF0.13447
aF0.11167
aF0.10612
aF0.12415
aF0.12878
aF0.13206
aF0.11647
aF0.11913
asI10
(lp5
F0.17495
aF0.16355
aF0.15991
aF0.19455
aF0.1042
aF0.18602
aF0.20138
aF0.23763
aF0.12279
aF0.14316
aF0.17037
aF0.15904
aF0.19209
aF0.24165
aF0.09626
aF0.11417
aF0.20094
aF0.16489
aF0.15184
aF0.15171
asI20
(lp6
F0.18788
aF0.16516
aF0.13341
aF0.18834
aF0.09624
aF0.16016
aF0.21838
aF0.20843
aF0.12794
aF0.13303
aF0.13751
aF0.12587
aF0.14127
aF0.0961
aF0.11071
aF0.13627
aF0.13531
aF0.14119
aF0.12136
aF0.12418
assI2
(dp7
I40
(lp8
F0.62421
aF0.68558
aF0.65984
aF0.65586
aF0.63416
aF0.65708
aF0.6728
aF0.71612
aF0.66179
aF0.675
aF0.65333
aF0.7168
aF0.64459
aF0.64737
aF0.67606
aF0.74267
aF0.72168
aF0.66793
aF0.63883
aF0.67502
asI10
(lp9
F0.94694
aF0.88733
aF0.8788
aF0.9003
aF0.88327
aF0.93475
aF0.93602
aF0.81611
aF0.80159
aF0.8949
aF0.90419
aF0.81821
aF0.91333
aF0.8558
aF0.90938
aF0.87079
aF0.91699
aF0.93218
aF0.88076
aF0.92211
asI20
(lp10
F0.68833
aF0.67765
aF0.69498
aF0.7119
aF0.63856
aF0.69607
aF0.69903
aF0.76808
aF0.62937
aF0.71023
aF0.72297
aF0.67507
aF0.66845
aF0.70714
aF0.67342
aF0.66929
aF0.74682
aF0.7575
aF0.63281
aF0.68841
assI4
(dp11
I40
(lp12
F0.4058
aF0.47398
aF0.44079
aF0.45737
aF0.41204
aF0.39083
aF0.42465
aF0.51503
aF0.43696
aF0.48743
aF0.39081
aF0.44948
aF0.44275
aF0.43269
aF0.4159
aF0.45969
aF0.45739
aF0.41047
aF0.42328
aF0.41214
asI10
(lp13
F0.55312
aF0.54637
aF0.5993
aF0.61167
aF0.49634
aF0.5877
aF0.62602
aF0.64039
aF0.51807
aF0.56215
aF0.55419
aF0.51203
aF0.57623
aF0.62014
aF0.49495
aF0.50919
aF0.60378
aF0.52211
aF0.52653
aF0.57146
asI20
(lp14
F0.55235
aF0.51838
aF0.55723
aF0.60008
aF0.47872
aF0.53202
aF0.60134
aF0.62959
aF0.49086
aF0.57502
aF0.56365
aF0.49361
aF0.59227
aF0.54846
aF0.50941
aF0.53723
aF0.56777
aF0.53701
aF0.50005
aF0.48625
assI6
(dp15
I40
(lp16
F0.2819
aF0.34933
aF0.28924
aF0.38063
aF0.28824
aF0.27377
aF0.24609
aF0.33272
aF0.29021
aF0.33618
aF0.26486
aF0.25656
aF0.31354
aF0.25725
aF0.24477
aF0.276
aF0.31399
aF0.27487
aF0.25821
aF0.25572
asI10
(lp17
F0.34263
aF0.3199
aF0.34894
aF0.42733
aF0.28965
aF0.37297
aF0.38884
aF0.44233
aF0.27479
aF0.33994
aF0.33645
aF0.31083
aF0.34196
aF0.39762
aF0.32751
aF0.24579
aF0.38623
aF0.30824
aF0.29447
aF0.33608
asI20
(lp18
F0.3478
aF0.33016
aF0.33493
aF0.41219
aF0.27872
aF0.34078
aF0.40272
aF0.36269
aF0.275
aF0.32639
aF0.35818
aF0.26977
aF0.31211
aF0.26656
aF0.34087
aF0.32418
aF0.34596
aF0.3037
aF0.2644
aF0.27354
asssS'DTLZ5'
p19
(dp20
I8
(dp21
I40
(lp22
F0.05572
aF0.08814
aF0.05518
aF0.05221
aF0.05666
aF0.06957
aF0.05743
aF0.04752
aF0.05039
aF0.05874
aF0.04881
aF0.06208
aF0.04913
aF0.05224
aF0.07607
aF0.06047
aF0.05927
aF0.06547
aF0.05169
aF0.05204
asI10
(lp23
F0.05273
aF0.04391
aF0.03429
aF0.03557
aF0.06766
aF0.04405
aF0.04646
aF0.04871
aF0.04217
aF0.0658
aF0.0367
aF0.04231
aF0.04951
aF0.03602
aF0.04716
aF0.05175
aF0.05334
aF0.0532
aF0.03426
aF0.03003
asI20
(lp24
F0.04874
aF0.08301
aF0.04088
aF0.04012
aF0.0486
aF0.04809
aF0.05188
aF0.04252
aF0.05834
aF0.05488
aF0.04644
aF0.04893
aF0.06883
aF0.04379
aF0.06228
aF0.06096
aF0.05017
aF0.04987
aF0.04231
aF0.04207
assI2
(dp25
I40
(lp26
F0.67908
aF0.70148
aF0.70307
aF0.69208
aF0.72164
aF0.71463
aF0.69102
aF0.66064
aF0.63189
aF0.65538
aF0.67115
aF0.65966
aF0.72193
aF0.68131
aF0.73597
aF0.66407
aF0.71017
aF0.70029
aF0.73032
aF0.7103
asI10
(lp27
F0.6917
aF0.71963
aF0.71012
aF0.68365
aF0.72437
aF0.68852
aF0.72645
aF0.66488
aF0.67049
aF0.71561
aF0.71761
aF0.69139
aF0.71786
aF0.69408
aF0.74058
aF0.6998
aF0.70498
aF0.70622
aF0.70857
aF0.67456
asI20
(lp28
F0.70764
aF0.74893
aF0.76452
aF0.68492
aF0.73889
aF0.73926
aF0.74138
aF0.7102
aF0.71166
aF0.66483
aF0.7618
aF0.72248
aF0.75043
aF0.68658
aF0.68553
aF0.68799
aF0.69791
aF0.70861
aF0.70723
aF0.70012
assI4
(dp29
I40
(lp30
F0.50131
aF0.57764
aF0.49414
aF0.51682
aF0.51602
aF0.55087
aF0.5286
aF0.5413
aF0.51928
aF0.49152
aF0.52922
aF0.54794
aF0.50371
aF0.52628
aF0.54232
aF0.57304
aF0.54408
aF0.52062
aF0.51895
aF0.47972
asI10
(lp31
F0.54982
aF0.55386
aF0.50123
aF0.5118
aF0.56446
aF0.48585
aF0.53743
aF0.55235
aF0.52417
aF0.53383
aF0.53387
aF0.52449
aF0.54799
aF0.50592
aF0.58415
aF0.54716
aF0.36497
aF0.53005
aF0.48761
aF0.41829
asI20
(lp32
F0.53511
aF0.60831
aF0.54049
aF0.50158
aF0.57022
aF0.55877
aF0.60583
aF0.55893
aF0.5647
aF0.55287
aF0.55449
aF0.57475
aF0.5933
aF0.54205
aF0.58733
aF0.60805
aF0.57568
aF0.57308
aF0.5437
aF0.53895
assI6
(dp33
I40
(lp34
F0.15886
aF0.22165
aF0.14396
aF0.13738
aF0.16983
aF0.17582
aF0.16299
aF0.13632
aF0.13862
aF0.35135
aF0.13781
aF0.16898
aF0.13495
aF0.14275
aF0.20851
aF0.16667
aF0.16105
aF0.17742
aF0.1442
aF0.14887
asI10
(lp35
F0.13564
aF0.12377
aF0.11601
aF0.10658
aF0.1438
aF0.1215
aF0.12968
aF0.14069
aF0.11665
aF0.14199
aF0.1126
aF0.12552
aF0.13548
aF0.09775
aF0.17809
aF0.13388
aF0.14348
aF0.14507
aF0.09857
aF0.08954
asI20
(lp36
F0.13275
aF0.19125
aF0.11821
aF0.29252
aF0.15431
aF0.11983
aF0.14736
aF0.12058
aF0.14908
aF0.13942
aF0.12713
aF0.13611
aF0.15675
aF0.12327
aF0.18184
aF0.15654
aF0.13948
aF0.14181
aF0.11732
aF0.11345
asssS'DTLZ3'
p37
(dp38
I8
(dp39
I40
(lp40
F1.0
aF1.0
aF1.0
aF1.0
aF1.0
aF1.0
aF1.0
aF1.0
aF1.0
aF1.0
aF1.0
aF1.0
aF1.0
aF1.0
aF1.0
aF1.0
aF1.0
aF1.0
aF1.0
aF1.0
asI10
(lp41
F0.99833
aF0.9999
aF0.98391
aF0.99963
aF0.99981
aF0.98436
aF0.99969
aF0.99906
aF0.99997
aF0.97746
aF0.99983
aF0.99868
aF0.99986
aF0.97786
aF0.99074
aF0.99493
aF0.99974
aF0.9994
aF0.99946
aF0.98021
asI20
(lp42
F1.0
aF1.0
aF1.0
aF1.0
aF1.0
aF1.0
aF1.0
aF1.0
aF0.99969
aF1.0
aF0.99992
aF1.0
aF1.0
aF1.0
aF0.98795
aF0.98466
aF1.0
aF1.0
aF1.0
aF1.0
assI2
(dp43
I40
(lp44
F1.0
aF1.0
aF1.0
aF0.99903
aF1.0
aF0.99998
aF1.0
aF1.0
aF1.0
aF1.0
aF1.0
aF1.0
aF1.0
aF1.0
aF1.0
aF1.0
aF1.0
aF1.0
aF1.0
aF1.0
asI10
(lp45
F0.99486
aF0.99802
aF0.97702
aF0.99084
aF0.99768
aF0.99178
aF0.99897
aF0.98427
aF0.99897
aF0.99118
aF0.99572
aF0.99264
aF0.9986
aF0.98286
aF0.99901
aF0.99732
aF0.99857
aF0.99589
aF0.99808
aF0.99724
asI20
(lp46
F1.0
aF0.99939
aF1.0
aF0.9997
aF1.0
aF1.0
aF1.0
aF1.0
aF0.9966
aF1.0
aF0.99943
aF0.99761
aF1.0
aF1.0
aF0.99999
aF0.99739
aF1.0
aF1.0
aF1.0
aF0.9998
assI4
(dp47
I40
(lp48
F1.0
aF1.0
aF1.0
aF1.0
aF1.0
aF0.99983
aF1.0
aF1.0
aF1.0
aF1.0
aF1.0
aF1.0
aF1.0
aF1.0
aF1.0
aF1.0
aF1.0
aF1.0
aF1.0
aF1.0
asI10
(lp49
F0.99751
aF0.99922
aF0.99423
aF0.99967
aF0.99832
aF0.99668
aF0.99937
aF0.99475
aF0.99871
aF0.9985
aF0.99814
aF0.99626
aF0.99799
aF0.99534
aF0.9997
aF0.999
aF0.99918
aF0.99758
aF0.99863
aF0.9976
asI20
(lp50
F1.0
aF0.99975
aF1.0
aF1.0
aF1.0
aF1.0
aF1.0
aF1.0
aF0.99806
aF1.0
aF1.0
aF1.0
aF1.0
aF1.0
aF0.99967
aF1.0
aF0.99987
aF1.0
aF1.0
aF1.0
assI6
(dp51
I40
(lp52
F1.0
aF1.0
aF1.0
aF1.0
aF1.0
aF1.0
aF1.0
aF1.0
aF1.0
aF1.0
aF1.0
aF1.0
aF1.0
aF1.0
aF1.0
aF1.0
aF1.0
aF1.0
aF1.0
aF1.0
asI10
(lp53
F0.99807
aF0.99958
aF0.97012
aF0.99756
aF0.99968
aF0.99623
aF0.9996
aF0.99852
aF0.99974
aF0.99879
aF0.99897
aF0.99886
aF0.99966
aF0.99723
aF0.9996
aF0.99953
aF0.99895
aF0.9984
aF0.99906
aF0.99879
asI20
(lp54
F1.0
aF1.0
aF1.0
aF1.0
aF1.0
aF0.99877
aF1.0
aF1.0
aF0.99982
aF0.99893
aF1.0
aF1.0
aF1.0
aF1.0
aF0.99996
aF0.99999
aF1.0
aF1.0
aF1.0
aF1.0
asssS'DTLZ1'
p55
(dp56
I8
(dp57
I40
(lp58
F1.0
aF1.0
aF1.0
aF1.0
aF1.0
aF1.0
aF1.0
aF1.0
aF1.0
aF1.0
aF1.0
aF1.0
aF1.0
aF1.0
aF1.0
aF1.0
aF1.0
aF1.0
aF1.0
aF1.0
asI10
(lp59
F0.99963
aF0.99076
aF0.99987
aF0.99907
aF0.99409
aF0.98526
aF0.99998
aF0.99907
aF0.99963
aF0.99807
aF0.98835
aF0.99991
aF0.99311
aF0.99454
aF0.9857
aF0.99999
aF0.99788
aF0.99253
aF0.99995
aF0.99371
asI20
(lp60
F1.0
aF1.0
aF1.0
aF1.0
aF1.0
aF1.0
aF1.0
aF1.0
aF1.0
aF1.0
aF1.0
aF0.99975
aF0.9995
aF1.0
aF1.0
aF1.0
aF1.0
aF0.99966
aF1.0
aF1.0
assI2
(dp61
I40
(lp62
F1.0
aF1.0
aF1.0
aF0.99827
aF1.0
aF1.0
aF1.0
aF1.0
aF1.0
aF1.0
aF1.0
aF1.0
aF1.0
aF1.0
aF1.0
aF1.0
aF1.0
aF1.0
aF0.99857
aF1.0
asI10
(lp63
F0.99748
aF0.99245
aF0.99907
aF0.99449
aF0.99291
aF0.99577
aF0.99968
aF0.99458
aF0.99211
aF0.99874
aF0.99219
aF0.99722
aF0.9956
aF0.99624
aF0.99813
aF0.99829
aF0.99964
aF0.99836
aF0.99895
aF0.99798
asI20
(lp64
F1.0
aF0.99747
aF1.0
aF1.0
aF1.0
aF0.99534
aF1.0
aF1.0
aF1.0
aF1.0
aF0.99994
aF0.9969
aF1.0
aF0.99498
aF1.0
aF0.99929
aF0.99883
aF0.99711
aF0.99956
aF0.99968
assI4
(dp65
I40
(lp66
F1.0
aF1.0
aF1.0
aF1.0
aF1.0
aF1.0
aF1.0
aF1.0
aF1.0
aF1.0
aF1.0
aF1.0
aF1.0
aF1.0
aF1.0
aF1.0
aF1.0
aF1.0
aF1.0
aF1.0
asI10
(lp67
F0.9988
aF0.99853
aF0.99932
aF0.99939
aF0.99926
aF0.99767
aF0.99988
aF0.99945
aF0.99742
aF0.99979
aF0.99673
aF0.99954
aF0.99939
aF0.99903
aF0.99811
aF0.99971
aF0.99967
aF0.99967
aF0.99959
aF0.99913
asI20
(lp68
F1.0
aF1.0
aF1.0
aF1.0
aF1.0
aF1.0
aF1.0
aF1.0
aF1.0
aF1.0
aF1.0
aF0.99868
aF0.99824
aF0.99097
aF0.999
aF0.99952
aF0.99935
aF0.99874
aF0.99799
aF1.0
assI6
(dp69
I40
(lp70
F1.0
aF1.0
aF1.0
aF1.0
aF1.0
aF1.0
aF1.0
aF1.0
aF1.0
aF1.0
aF1.0
aF1.0
aF1.0
aF1.0
aF1.0
aF1.0
aF1.0
aF1.0
aF1.0
aF1.0
asI10
(lp71
F0.99974
aF0.99981
aF0.98692
aF0.99973
aF0.99956
aF0.99912
aF0.99988
aF0.99952
aF0.99774
aF0.99978
aF0.99959
aF0.99977
aF0.99956
aF0.99983
aF0.99982
aF0.99994
aF0.99992
aF0.99977
aF0.99977
aF0.9996
asI20
(lp72
F1.0
aF1.0
aF1.0
aF0.99994
aF1.0
aF1.0
aF1.0
aF1.0
aF1.0
aF1.0
aF0.99986
aF0.99924
aF1.0
aF1.0
aF1.0
aF0.99977
aF0.99954
aF0.99965
aF1.0
aF1.0
asss.